target datalayout = "e-m:e-p270:32:32-p271:32:32-p272:64:64-i64:64-i128:128-f80:128-n8:16:32:64-S128"
target triple = "x86_64-unknown-linux-gnu"

%struct.app_flags = type { i24 }
%class.svector = type { %class.vector.0 }
%class.vector.0 = type { ptr }
%"class.(anonymous namespace)::compiler" = type { ptr, ptr, ptr, ptr, i8, %class.ptr_vector.3, %class.svector, %class.svector, %class.svector.5, ptr, ptr, ptr, i32, i8, %class.svector.7, %class.obj_map, %class.svector.9, %class.svector, %class.ptr_vector.11, %class.ptr_vector.11, %class.ptr_vector.11 }
%class.ptr_vector.3 = type { %class.vector.4 }
%class.vector.4 = type { ptr }
%class.svector.5 = type { %class.vector.6 }
%class.vector.6 = type { ptr }
%class.obj_map = type { %class.core_hashtable }
%class.core_hashtable = type <{ ptr, i32, i32, i32, [4 x i8] }>
%class.svector.9 = type { %class.vector.10 }
%class.vector.10 = type { ptr }
%class.ptr_vector.11 = type { %class.vector.12 }
%class.vector.12 = type { ptr }
%class.svector.7 = type { %class.vector.8 }
%class.vector.8 = type { ptr }
%class.app = type { %class.expr, ptr, i32, [0 x ptr] }
%class.expr = type { %class.ast }
%class.ast = type { i32, i24, i32, i32 }
%class.var = type { %class.expr, i32, ptr }

@_ZN3app16g_constant_flagsE = external global %struct.app_flags, align 4

; Function Attrs: mustprogress nounwind uwtable
define linkonce_odr hidden noundef i32 @_ZNK3ast8get_kindEv(ptr noundef nonnull align 4 dereferenceable(16) %this) #4 comdat align 2 {
entry:
  %this.addr = alloca ptr, align 8
  store ptr %this, ptr %this.addr, align 8
  %this1 = load ptr, ptr %this.addr, align 8
  %m_kind = getelementptr inbounds %class.ast, ptr %this1, i32 0, i32 1
  %bf.load = load i32, ptr %m_kind, align 4
  %bf.clear = and i32 %bf.load, 65535
  ret i32 %bf.clear
}

; Function Attrs: mustprogress nounwind uwtable
define linkonce_odr hidden noundef ptr @_ZNK3app5flagsEv(ptr noundef nonnull align 8 dereferenceable(32) %this) #4 comdat align 2 {
entry:
  %this.addr = alloca ptr, align 8
  store ptr %this, ptr %this.addr, align 8
  %this1 = load ptr, ptr %this.addr, align 8
  %m_num_args = getelementptr inbounds %class.app, ptr %this1, i32 0, i32 2
  %0 = load i32, ptr %m_num_args, align 8
  %cmp = icmp eq i32 %0, 0
  br i1 %cmp, label %cond.true, label %cond.false

cond.true:                                        ; preds = %entry
  br label %cond.end

cond.false:                                       ; preds = %entry
  %m_args = getelementptr inbounds %class.app, ptr %this1, i32 0, i32 3
  %arraydecay = getelementptr inbounds [0 x ptr], ptr %m_args, i64 0, i64 0
  %m_num_args2 = getelementptr inbounds %class.app, ptr %this1, i32 0, i32 2
  %1 = load i32, ptr %m_num_args2, align 8
  %idx.ext = zext i32 %1 to i64
  %add.ptr = getelementptr inbounds ptr, ptr %arraydecay, i64 %idx.ext
  br label %cond.end

cond.end:                                         ; preds = %cond.false, %cond.true
  %cond = phi ptr [ @_ZN3app16g_constant_flagsE, %cond.true ], [ %add.ptr, %cond.false ]
  ret ptr %cond
}

; Function Attrs: mustprogress nounwind uwtable
define linkonce_odr hidden noundef ptr @_Z6to_appP3ast(ptr noundef %n) #4 comdat {
entry:
  %n.addr = alloca ptr, align 8
  store ptr %n, ptr %n.addr, align 8
  %0 = load ptr, ptr %n.addr, align 8
  ret ptr %0
}

; Function Attrs: mustprogress uwtable
define linkonce_odr hidden noundef zeroext i1 @_Z6is_appPK3ast(ptr noundef %n) #5 comdat {
entry:
  %n.addr = alloca ptr, align 8
  store ptr %n, ptr %n.addr, align 8
  %0 = load ptr, ptr %n.addr, align 8
  %call = call noundef i32 @_ZNK3ast8get_kindEv(ptr noundef nonnull align 4 dereferenceable(16) %0)
  %cmp = icmp eq i32 %call, 0
  ret i1 %cmp
}

; Function Attrs: mustprogress nounwind uwtable
define linkonce_odr hidden noundef nonnull align 4 dereferenceable(4) ptr @_ZN6vectorIiLb0EjEixEj(ptr noundef nonnull align 8 dereferenceable(8) %this, i32 noundef %idx) #4 comdat align 2 {
entry:
  %this.addr = alloca ptr, align 8
  %idx.addr = alloca i32, align 4
  store ptr %this, ptr %this.addr, align 8
  store i32 %idx, ptr %idx.addr, align 4
  %this1 = load ptr, ptr %this.addr, align 8
  %m_data = getelementptr inbounds %class.vector.6, ptr %this1, i32 0, i32 0
  %0 = load ptr, ptr %m_data, align 8
  %1 = load i32, ptr %idx.addr, align 4
  %idxprom = zext i32 %1 to i64
  %arrayidx = getelementptr inbounds i32, ptr %0, i64 %idxprom
  ret ptr %arrayidx
}

; Function Attrs: mustprogress nounwind uwtable
define linkonce_odr hidden noundef i32 @_ZNK3var7get_idxEv(ptr noundef nonnull align 8 dereferenceable(32) %this) #4 comdat align 2 {
entry:
  %this.addr = alloca ptr, align 8
  store ptr %this, ptr %this.addr, align 8
  %this1 = load ptr, ptr %this.addr, align 8
  %m_idx = getelementptr inbounds %class.var, ptr %this1, i32 0, i32 1
  %0 = load i32, ptr %m_idx, align 8
  ret i32 %0
}

; Function Attrs: mustprogress nounwind uwtable
define linkonce_odr hidden noundef ptr @_Z6to_varP3ast(ptr noundef %n) #4 comdat {
entry:
  %n.addr = alloca ptr, align 8
  store ptr %n, ptr %n.addr, align 8
  %0 = load ptr, ptr %n.addr, align 8
  ret ptr %0
}

; Function Attrs: mustprogress nounwind uwtable
define linkonce_odr hidden noundef zeroext i1 @_Z6is_varPK3ast(ptr noundef %n) #4 comdat {
entry:
  %n.addr = alloca ptr, align 8
  store ptr %n, ptr %n.addr, align 8
  %0 = load ptr, ptr %n.addr, align 8
  %call = call noundef i32 @_ZNK3ast8get_kindEv(ptr noundef nonnull align 4 dereferenceable(16) %0)
  %cmp = icmp eq i32 %call, 1
  ret i1 %cmp
}

; Function Attrs: mustprogress nounwind uwtable
define linkonce_odr hidden noundef ptr @_ZNK3app3endEv(ptr noundef nonnull align 8 dereferenceable(32) %this) #4 comdat align 2 {
entry:
  %this.addr = alloca ptr, align 8
  store ptr %this, ptr %this.addr, align 8
  %this1 = load ptr, ptr %this.addr, align 8
  %m_args = getelementptr inbounds %class.app, ptr %this1, i32 0, i32 3
  %arraydecay = getelementptr inbounds [0 x ptr], ptr %m_args, i64 0, i64 0
  %m_num_args = getelementptr inbounds %class.app, ptr %this1, i32 0, i32 2
  %0 = load i32, ptr %m_num_args, align 8
  %idx.ext = zext i32 %0 to i64
  %add.ptr = getelementptr inbounds ptr, ptr %arraydecay, i64 %idx.ext
  ret ptr %add.ptr
}

; Function Attrs: mustprogress nounwind uwtable
define linkonce_odr hidden noundef ptr @_ZNK3app5beginEv(ptr noundef nonnull align 8 dereferenceable(32) %this) #4 comdat align 2 {
entry:
  %this.addr = alloca ptr, align 8
  store ptr %this, ptr %this.addr, align 8
  %this1 = load ptr, ptr %this.addr, align 8
  %m_args = getelementptr inbounds %class.app, ptr %this1, i32 0, i32 3
  %arraydecay = getelementptr inbounds [0 x ptr], ptr %m_args, i64 0, i64 0
  ret ptr %arraydecay
}

; Function Attrs: mustprogress uwtable
define linkonce_odr hidden noundef zeroext i1 @_ZNK3app9is_groundEv(ptr noundef nonnull align 8 dereferenceable(32) %this) #5 comdat align 2 {
entry:
  %this.addr = alloca ptr, align 8
  store ptr %this, ptr %this.addr, align 8
  %this1 = load ptr, ptr %this.addr, align 8
  %call = call noundef ptr @_ZNK3app5flagsEv(ptr noundef nonnull align 8 dereferenceable(32) %this1)
  %bf.load = load i32, ptr %call, align 4
  %bf.lshr = lshr i32 %bf.load, 16
  %bf.clear = and i32 %bf.lshr, 1
  %tobool = icmp ne i32 %bf.clear, 0
  ret i1 %tobool
}

; Function Attrs: mustprogress uwtable
define internal void @_ZN12_GLOBAL__N_18compiler14get_stats_coreEP3appRjS3_(ptr noundef nonnull align 8 dereferenceable(176) %this, ptr noundef %n, ptr noundef nonnull align 4 dereferenceable(4) %sz, ptr noundef nonnull align 4 dereferenceable(4) %num_unbound_vars) #5 align 2 {
entry:
  %this.addr = alloca ptr, align 8
  %n.addr = alloca ptr, align 8
  %sz.addr = alloca ptr, align 8
  %num_unbound_vars.addr = alloca ptr, align 8
  %__range2 = alloca ptr, align 8
  %__begin2 = alloca ptr, align 8
  %__end2 = alloca ptr, align 8
  %arg = alloca ptr, align 8
  %var_id = alloca i32, align 4
  store ptr %this, ptr %this.addr, align 8
  store ptr %n, ptr %n.addr, align 8
  store ptr %sz, ptr %sz.addr, align 8
  store ptr %num_unbound_vars, ptr %num_unbound_vars.addr, align 8
  %this1 = load ptr, ptr %this.addr, align 8
  %0 = load ptr, ptr %sz.addr, align 8
  %1 = load i32, ptr %0, align 4
  %inc = add i32 %1, 1
  store i32 %inc, ptr %0, align 4
  %2 = load ptr, ptr %n.addr, align 8
  %call = call noundef zeroext i1 @_ZNK3app9is_groundEv(ptr noundef nonnull align 8 dereferenceable(32) %2)
  br i1 %call, label %if.then, label %if.end

if.then:                                          ; preds = %entry
  br label %for.end

if.end:                                           ; preds = %entry
  %3 = load ptr, ptr %n.addr, align 8
  store ptr %3, ptr %__range2, align 8
  %4 = load ptr, ptr %__range2, align 8
  %call2 = call noundef ptr @_ZNK3app5beginEv(ptr noundef nonnull align 8 dereferenceable(32) %4)
  store ptr %call2, ptr %__begin2, align 8
  %5 = load ptr, ptr %__range2, align 8
  %call3 = call noundef ptr @_ZNK3app3endEv(ptr noundef nonnull align 8 dereferenceable(32) %5)
  store ptr %call3, ptr %__end2, align 8
  br label %for.cond

for.cond:                                         ; preds = %for.inc, %if.end
  %6 = load ptr, ptr %__begin2, align 8
  %7 = load ptr, ptr %__end2, align 8
  %cmp = icmp ne ptr %6, %7
  br i1 %cmp, label %for.body, label %for.end

for.body:                                         ; preds = %for.cond
  %8 = load ptr, ptr %__begin2, align 8
  %9 = load ptr, ptr %8, align 8
  store ptr %9, ptr %arg, align 8
  %10 = load ptr, ptr %arg, align 8
  %call4 = call noundef zeroext i1 @_Z6is_varPK3ast(ptr noundef %10)
  br i1 %call4, label %if.then5, label %if.else

if.then5:                                         ; preds = %for.body
  %11 = load ptr, ptr %sz.addr, align 8
  %12 = load i32, ptr %11, align 4
  %inc6 = add i32 %12, 1
  store i32 %inc6, ptr %11, align 4
  %13 = load ptr, ptr %arg, align 8
  %call7 = call noundef ptr @_Z6to_varP3ast(ptr noundef %13)
  %call8 = call noundef i32 @_ZNK3var7get_idxEv(ptr noundef nonnull align 8 dereferenceable(32) %call7)
  store i32 %call8, ptr %var_id, align 4
  %m_vars = getelementptr inbounds %"class.(anonymous namespace)::compiler", ptr %this1, i32 0, i32 8
  %14 = load i32, ptr %var_id, align 4
  %call9 = call noundef nonnull align 4 dereferenceable(4) ptr @_ZN6vectorIiLb0EjEixEj(ptr noundef nonnull align 8 dereferenceable(8) %m_vars, i32 noundef %14)
  %15 = load i32, ptr %call9, align 4
  %cmp10 = icmp eq i32 %15, -1
  br i1 %cmp10, label %if.then11, label %if.end13

if.then11:                                        ; preds = %if.then5
  %16 = load ptr, ptr %num_unbound_vars.addr, align 8
  %17 = load i32, ptr %16, align 4
  %inc12 = add i32 %17, 1
  store i32 %inc12, ptr %16, align 4
  br label %if.end13

if.end13:                                         ; preds = %if.then11, %if.then5
  br label %if.end18

if.else:                                          ; preds = %for.body
  %18 = load ptr, ptr %arg, align 8
  %call14 = call noundef zeroext i1 @_Z6is_appPK3ast(ptr noundef %18)
  br i1 %call14, label %if.then15, label %if.end17

if.then15:                                        ; preds = %if.else
  %19 = load ptr, ptr %arg, align 8
  %call16 = call noundef ptr @_Z6to_appP3ast(ptr noundef %19)
  %20 = load ptr, ptr %sz.addr, align 8
  %21 = load ptr, ptr %num_unbound_vars.addr, align 8
  call void @_ZN12_GLOBAL__N_18compiler14get_stats_coreEP3appRjS3_(ptr noundef nonnull align 8 dereferenceable(176) %this1, ptr noundef %call16, ptr noundef nonnull align 4 dereferenceable(4) %20, ptr noundef nonnull align 4 dereferenceable(4) %21)
  br label %if.end17

if.end17:                                         ; preds = %if.then15, %if.else
  br label %if.end18

if.end18:                                         ; preds = %if.end17, %if.end13
  br label %for.inc

for.inc:                                          ; preds = %if.end18
  %22 = load ptr, ptr %__begin2, align 8
  %incdec.ptr = getelementptr inbounds ptr, ptr %22, i32 1
  store ptr %incdec.ptr, ptr %__begin2, align 8
  br label %for.cond

for.end:                                          ; preds = %for.cond, %if.then
  ret void
}