; Function Attrs: mustprogress nofree nosync nounwind memory(readwrite, inaccessiblemem: none) uwtable
define internal fastcc void @_ZN12_GLOBAL__N_18compiler14get_stats_coreEP3appRjS3_(ptr nocapture noundef nonnull readonly align 8 dereferenceable(176) %this, ptr noundef readonly %n, ptr nocapture noundef nonnull align 4 dereferenceable(4) %sz, ptr nocapture noundef nonnull align 4 dereferenceable(4) %num_unbound_vars) unnamed_addr #15 align 2 {
entry:
  %0 = load i32, ptr %sz, align 4
  %inc = add i32 %0, 1
  store i32 %inc, ptr %sz, align 4
  %m_num_args.i.i = getelementptr inbounds i8, ptr %n, i64 24
  %1 = load i32, ptr %m_num_args.i.i, align 8
  %cmp.i.i = icmp eq i32 %1, 0
  %idx.ext.i.i = zext i32 %1 to i64
  %add.ptr.i.i.idx = shl nuw nsw i64 %idx.ext.i.i, 3
  %2 = getelementptr i8, ptr %n, i64 %add.ptr.i.i.idx
  %add.ptr.i.i.ptr = getelementptr i8, ptr %2, i64 32
  %cond.i.i = select i1 %cmp.i.i, ptr @_ZN3app16g_constant_flagsE, ptr %add.ptr.i.i.ptr
  %bf.load.i = load i32, ptr %cond.i.i, align 4
  %3 = and i32 %bf.load.i, 65536
  %tobool.i.not = icmp ne i32 %3, 0
  %or.cond = or i1 %tobool.i.not, %cmp.i.i
  br i1 %or.cond, label %for.end, label %for.body.lr.ph

for.body.lr.ph:                                   ; preds = %entry
  %m_args.i.i.ptr = getelementptr inbounds i8, ptr %n, i64 32
  %m_vars = getelementptr inbounds i8, ptr %this, i64 64
  br label %for.body

for.body:                                         ; preds = %for.body.lr.ph, %for.inc
  %__begin2.017 = phi ptr [ %m_args.i.i.ptr, %for.body.lr.ph ], [ %incdec.ptr, %for.inc ]
  %4 = load ptr, ptr %__begin2.017, align 8
  %m_kind.i.i = getelementptr inbounds i8, ptr %4, i64 4
  %bf.load.i.i = load i32, ptr %m_kind.i.i, align 4
  %trunc = trunc i32 %bf.load.i.i to i16
  switch i16 %trunc, label %for.inc [
    i16 1, label %if.then5
    i16 0, label %if.then15
  ]

if.then5:                                         ; preds = %for.body
  %5 = load i32, ptr %sz, align 4
  %inc6 = add i32 %5, 1
  store i32 %inc6, ptr %sz, align 4
  %m_idx.i = getelementptr inbounds i8, ptr %4, i64 16
  %6 = load i32, ptr %m_idx.i, align 8
  %7 = load ptr, ptr %m_vars, align 8
  %idxprom.i = zext i32 %6 to i64
  %arrayidx.i = getelementptr inbounds i32, ptr %7, i64 %idxprom.i
  %8 = load i32, ptr %arrayidx.i, align 4
  %cmp10 = icmp eq i32 %8, -1
  br i1 %cmp10, label %if.then11, label %for.inc

if.then11:                                        ; preds = %if.then5
  %9 = load i32, ptr %num_unbound_vars, align 4
  %inc12 = add i32 %9, 1
  store i32 %inc12, ptr %num_unbound_vars, align 4
  br label %for.inc

if.then15:                                        ; preds = %for.body
  tail call fastcc void @_ZN12_GLOBAL__N_18compiler14get_stats_coreEP3appRjS3_(ptr noundef nonnull align 8 dereferenceable(176) %this, ptr noundef nonnull %4, ptr noundef nonnull align 4 dereferenceable(4) %sz, ptr noundef nonnull align 4 dereferenceable(4) %num_unbound_vars)
  br label %for.inc

for.inc:                                          ; preds = %for.body, %if.then11, %if.then5, %if.then15
  %incdec.ptr = getelementptr inbounds i8, ptr %__begin2.017, i64 8
  %cmp.not = icmp eq ptr %incdec.ptr, %add.ptr.i.i.ptr
  br i1 %cmp.not, label %for.end, label %for.body

for.end:                                          ; preds = %for.inc, %entry
  ret void
}